target datalayout = "e-m:e-p270:32:32-p271:32:32-p272:64:64-i64:64-i128:128-f80:128-n8:16:32:64-S128"
target triple = "x86_64-pc-linux-gnu"

; Function Attrs: nounwind uwtable
define ptr @evmc_get_instruction_metrics_table(i32 noundef %0) #0 {
  %2 = alloca ptr, align 8
  %3 = alloca i32, align 4
  store i32 %0, ptr %3, align 4, !tbaa !3
  %4 = load i32, ptr %3, align 4, !tbaa !3
  switch i32 %4, label %17 [
    i32 15, label %5
    i32 14, label %5
    i32 13, label %6
    i32 12, label %7
    i32 11, label %8
    i32 10, label %9
    i32 9, label %9
    i32 8, label %10
    i32 7, label %11
    i32 6, label %12
    i32 5, label %12
    i32 4, label %13
    i32 3, label %14
    i32 2, label %14
    i32 1, label %15
    i32 0, label %16
  ]

5:                                                ; preds = %1, %1
  store ptr @osaka_metrics, ptr %2, align 8
  br label %18

6:                                                ; preds = %1
  store ptr @prague_metrics, ptr %2, align 8
  br label %18

7:                                                ; preds = %1
  store ptr @cancun_metrics, ptr %2, align 8
  br label %18

8:                                                ; preds = %1
  store ptr @shanghai_metrics, ptr %2, align 8
  br label %18

9:                                                ; preds = %1, %1
  store ptr @london_metrics, ptr %2, align 8
  br label %18

10:                                               ; preds = %1
  store ptr @berlin_metrics, ptr %2, align 8
  br label %18

11:                                               ; preds = %1
  store ptr @istanbul_metrics, ptr %2, align 8
  br label %18

12:                                               ; preds = %1, %1
  store ptr @constantinople_metrics, ptr %2, align 8
  br label %18

13:                                               ; preds = %1
  store ptr @byzantium_metrics, ptr %2, align 8
  br label %18

14:                                               ; preds = %1, %1
  store ptr @tangerine_whistle_metrics, ptr %2, align 8
  br label %18

15:                                               ; preds = %1
  store ptr @homestead_metrics, ptr %2, align 8
  br label %18

16:                                               ; preds = %1
  store ptr @frontier_metrics, ptr %2, align 8
  br label %18

17:                                               ; preds = %1
  store ptr null, ptr %2, align 8
  br label %18

18:                                               ; preds = %17, %16, %15, %14, %13, %12, %11, %10, %9, %8, %7, %6, %5
  %19 = load ptr, ptr %2, align 8
  ret ptr %19
}